((lp0
(F-2.5583290425164975
F0.16802799244751176
F1.0
tp1
a(F-2.5239343919963515
F1.2206749632229434
F1.0
tp2
a(F-3.3631685882761992
F-0.041928130722401313
F1.0
tp3
a(F-1.8365870205658326
F1.5431376758517545
F1.0
tp4
a(F-0.08770811220370045
F0.32872522341509203
F1.0
tp5
a(F-1.8046322193535733
F1.0736975054447455
F1.0
tp6
a(F0.301674473018128
F-0.58085143597994793
F1.0
tp7
a(F-1.6807125860539658
F1.5194618808976323
F1.0
tp8
a(F-2.4426307401713379
F2.0501033099529575
F1.0
tp9
a(F-1.1082895010716878
F1.037579062498811
F1.0
tp10
a(F-0.17943522379218479
F0.99929313788991525
F1.0
tp11
a(F2.7252686508796344
F1.3759326552985578
F1.0
tp12
a(F2.2863439177345781
F1.4972959692220531
F1.0
tp13
a(F0.76727036250585945
F-0.18552800552411619
F1.0
tp14
a(F1.7097728401475594
F0.58190243135760611
F1.0
tp15
a(F2.412723540005933
F0.64617731013975077
F1.0
tp16
a(F2.7465270747301389
F-0.61953557060193032
F1.0
tp17
a(F1.4486759325461755
F-0.020903976988075224
F1.0
tp18
a(F0.88545448603750876
F0.70107498648649669
F1.0
tp19
a(F-0.35140566797492134
F0.87998058226402553
F1.0
tp20
a(lp21
(F0.45141386183518217
F-0.51533930721744448
F-1.0
tp22
a(F0.5182254406112945
F-0.86007101594065638
F-1.0
tp23
a(F0.60634286567379247
F-0.7277592150083384
F-1.0
tp24
a(F-0.2618289992394271
F-0.14305329620905205
F-1.0
tp25
a(F0.20014361173294742
F-0.89313515232177798
F-1.0
tp26
a(F0.21473580463483266
F-1.1805026866534534
F-1.0
tp27
a(F-0.23102584688157951
F-0.41313986343376352
F-1.0
tp28
a(F-0.026913081414093678
F-1.2302349604734193
F-1.0
tp29
a(F-0.11705894094754313
F-0.093096358980596372
F-1.0
tp30
a(F0.28758266269179367
F-0.6493012471419779
F-1.0
tp31
a(F-0.085726291003366928
F-0.33628078253531657
F-1.0
tp32
a(F-0.27129428564845726
F-0.0098934951394314408
F-1.0
tp33
a(F-0.077120091564066823
F-0.94452349454195861
F-1.0
tp34
a(F-0.40723623434711004
F0.34086171427949208
F-1.0
tp35
a(F-0.96198415248885327
F-0.25127242467651661
F-1.0
tp36
a(F0.0043894176239620518
F-0.50339218131220242
F-1.0
tp37
a(F-1.2596735671049004
F-0.1023330975078211
F-1.0
tp38
a(F-0.0085281167401440611
F-0.44135309464024097
F-1.0
tp39
a(F0.3809281555480647
F-0.42645327480899009
F-1.0
tp40
a(F-0.48910370780634949
F-1.2310621896543947
F-1.0
tp41
a(lp42
g29
ag7
ag19
ag6
ag35
ag28
ag38
ag10
ag39
ag12
ag24
ag17
ag41
ag36
ag26
ag13
ag37
ag3
ag2
ag4
ag23
ag11
ag16
ag34
ag8
ag27
ag22
ag9
ag5
ag15
ag1
ag14
ag33
ag30
ag20
ag32
ag31
ag25
ag40
ag18
atp43
.