((lp0
(F-2.1416065874525128
F-1.1677966345309065
F1.0
tp1
a(F-2.603992654016456
F1.8670200290664025
F1.0
tp2
a(F-0.66205899798533785
F0.63937750892413081
F1.0
tp3
a(F-1.7308092433130364
F0.16642973703295721
F1.0
tp4
a(F-2.7595852061407413
F0.42206367053984928
F1.0
tp5
a(F-1.6005801019413304
F0.7562252839755349
F1.0
tp6
a(F-0.58722410080974652
F-0.68539503196182205
F1.0
tp7
a(F0.32846399554475036
F1.7490641960507849
F1.0
tp8
a(F-2.0090803247220319
F-1.0827017187836718
F1.0
tp9
a(F-1.6951619436499954
F1.3594303731033517
F1.0
tp10
a(F0.47115708444820137
F-0.54864574965144719
F1.0
tp11
a(F2.3056817498304887
F0.25875492283639046
F1.0
tp12
a(F3.2198206262037177
F1.7333017258537677
F1.0
tp13
a(F1.0463797685818439
F-0.71968010546207717
F1.0
tp14
a(F0.88428109983673131
F-0.35864485702411619
F1.0
tp15
a(F1.466592587209685
F0.51926283786657845
F1.0
tp16
a(F1.0502329556765426
F0.74699359565703716
F1.0
tp17
a(F2.4868590847043839
F0.056757192029177228
F1.0
tp18
a(F-0.74251708752020074
F0.1505300167483215
F1.0
tp19
a(F-0.67708907156296805
F2.5157863143863048
F1.0
tp20
a(lp21
(F-0.40296777526386374
F0.2396418072248947
F-1.0
tp22
a(F-0.20767711842791045
F-0.36159728479239561
F-1.0
tp23
a(F-0.17645437456619487
F-0.24416009431652741
F-1.0
tp24
a(F1.2335487748315503
F-1.2105589338272527
F-1.0
tp25
a(F-0.39491810488778384
F-0.77165091560568766
F-1.0
tp26
a(F-0.0032291442811358262
F-0.37945088803632276
F-1.0
tp27
a(F0.75330537167927791
F-0.73848004753482854
F-1.0
tp28
a(F-0.24461477023447481
F-1.0048859021979477
F-1.0
tp29
a(F0.0028664693310432553
F0.089520786466702362
F-1.0
tp30
a(F1.3690060739303433
F-0.18064889458743638
F-1.0
tp31
a(F0.34519801394568722
F-0.13693488144134808
F-1.0
tp32
a(F0.23915991461352226
F-1.493901110433125
F-1.0
tp33
a(F0.31578911268054383
F0.0048069906285159725
F-1.0
tp34
a(F0.037624233409539125
F-1.0737504299951839
F-1.0
tp35
a(F-0.85407639615168041
F0.033881176850773298
F-1.0
tp36
a(F0.21318614071077122
F-0.5838233174662032
F-1.0
tp37
a(F-0.49404185314830562
F0.048991306461654172
F-1.0
tp38
a(F0.1919352082346073
F-0.76651345442441676
F-1.0
tp39
a(F0.19536716397332973
F-0.1314424753990916
F-1.0
tp40
a(F0.29427236311871829
F-0.80555487843488094
F-1.0
tp41
a(lp42
g27
ag40
ag39
ag17
ag36
ag1
ag30
ag34
ag31
ag24
ag8
ag25
ag33
ag15
ag10
ag18
ag38
ag6
ag29
ag16
ag13
ag22
ag3
ag20
ag37
ag9
ag26
ag2
ag41
ag11
ag28
ag35
ag4
ag7
ag14
ag5
ag32
ag12
ag19
ag23
atp43
.