((lp0
(F-2.162219520958212
F1.2681102288942179
F1.0
tp1
a(F-2.0905352000743327
F0.19101332697133822
F1.0
tp2
a(F-2.3055596539019803
F0.27128477702468978
F1.0
tp3
a(F-1.8619833468212312
F2.2727785051919316
F1.0
tp4
a(F-2.2751648984180166
F-1.1272159716875165
F1.0
tp5
a(F0.41959961939566703
F0.28516270647252651
F1.0
tp6
a(F-2.0528942164082853
F0.43204281066827932
F1.0
tp7
a(F0.2620874418506498
F0.36257554176107309
F1.0
tp8
a(F-1.6545890341387757
F0.14735275644332524
F1.0
tp9
a(F0.52469053776902452
F-0.12219100996452548
F1.0
tp10
a(F2.1221361705434676
F1.1736765532692071
F1.0
tp11
a(F0.77459485025339081
F0.082343355193994883
F1.0
tp12
a(F0.45500373625646495
F0.13949570439436138
F1.0
tp13
a(F2.1105015757739269
F0.76654825693566053
F1.0
tp14
a(F2.8365816063766758
F-0.52769457850508861
F1.0
tp15
a(F0.91675821253873413
F-0.10378955312985882
F1.0
tp16
a(F2.0936527110831782
F1.5077954585720188
F1.0
tp17
a(F1.6267551533210023
F2.4693314571628209
F1.0
tp18
a(F1.6666951669665786
F1.2036757262459736
F1.0
tp19
a(F1.8805123733766094
F-0.019023612128553635
F1.0
tp20
a(lp21
(F-2.1651537575671957
F-2.4175688639659367
F-1.0
tp22
a(F-1.3970033943024416
F-1.7005492188576554
F-1.0
tp23
a(F-3.1349400533456766
F-1.7079444639328836
F-1.0
tp24
a(F-1.8177813347787906
F-2.9082999973514876
F-1.0
tp25
a(F-2.3021815112789894
F-3.1741420864906602
F-1.0
tp26
a(F-1.7559479077893028
F-2.6638663639671014
F-1.0
tp27
a(F-1.9646111029085571
F-1.3548451242033166
F-1.0
tp28
a(F-1.973694589042482
F-1.4082832521809476
F-1.0
tp29
a(F-2.0728375292628298
F-2.4360708514566771
F-1.0
tp30
a(F-2.4172665716941943
F-1.66740194440704
F-1.0
tp31
a(F-1.039893077800917
F-2.0114754305470939
F-1.0
tp32
a(F-1.2858709887393109
F-1.6748766727683564
F-1.0
tp33
a(F-2.1278340142870498
F-2.5465625077462719
F-1.0
tp34
a(F-1.5796727158488499
F-2.3813079430865911
F-1.0
tp35
a(F-2.2095227580982684
F-2.6229277313708819
F-1.0
tp36
a(F-1.1297165891051959
F-2.205294575420897
F-1.0
tp37
a(F-2.6985021596359711
F-1.8569065925815635
F-1.0
tp38
a(F-2.3659066175254684
F-1.4066614961461372
F-1.0
tp39
a(F-0.54289373526583162
F-2.7675409836177769
F-1.0
tp40
a(F-1.9237590252891636
F-2.2213139325991227
F-1.0
tp41
a(lp42
g38
ag41
ag7
ag8
ag34
ag24
ag32
ag35
ag6
ag30
ag25
ag17
ag40
ag2
ag10
ag14
ag22
ag13
ag18
ag11
ag23
ag36
ag26
ag28
ag15
ag29
ag4
ag20
ag37
ag31
ag1
ag33
ag27
ag39
ag5
ag9
ag16
ag19
ag12
ag3
atp43
.