((lp0
(F-2.7300972780452559
F0.76121989412503033
F1.0
tp1
a(F-2.0671071416902453
F1.9245216046810427
F1.0
tp2
a(F-0.54563261015803355
F1.0330169584904063
F1.0
tp3
a(F-1.8179833833344039
F0.93627288576811951
F1.0
tp4
a(F-0.85356561634352579
F0.43263697397748568
F1.0
tp5
a(F-3.0314325712296415
F-0.45208621256707759
F1.0
tp6
a(F-1.5369765780519511
F1.7743996922959302
F1.0
tp7
a(F-1.8851050858096761
F0.58150702457554004
F1.0
tp8
a(F-1.5107329449371958
F1.1021863988660923
F1.0
tp9
a(F-2.0788105794445908
F-0.36538265293863426
F1.0
tp10
a(F2.0510081748283793
F-1.6323954749969589
F1.0
tp11
a(F1.9827156221485864
F-0.85332770982438499
F1.0
tp12
a(F2.2184131953604074
F-0.38531792331256742
F1.0
tp13
a(F2.8392702858904473
F1.0725888031316817
F1.0
tp14
a(F1.3829794063023062
F2.7685366277685839
F1.0
tp15
a(F2.3521612824579732
F0.45414160919301333
F1.0
tp16
a(F0.597837457942622
F-0.41760118027446114
F1.0
tp17
a(F0.79202417636833322
F-0.27154812898237257
F1.0
tp18
a(F1.8427970168591741
F-1.2558633950818234
F1.0
tp19
a(F0.46623436848711908
F0.57588346589907591
F1.0
tp20
a(lp21
(F-1.9775006811380851
F-1.75155837247132
F-1.0
tp22
a(F-1.7442538975118218
F-1.0971580464795059
F-1.0
tp23
a(F-1.7450351216198012
F-1.5680699013468806
F-1.0
tp24
a(F-1.791172176177108
F-1.6690968744455357
F-1.0
tp25
a(F-1.3836681327457028
F-0.42414550833073816
F-1.0
tp26
a(F-1.7781601639421445
F-1.4320444366858704
F-1.0
tp27
a(F-1.3152075578203108
F-1.8447226021508356
F-1.0
tp28
a(F-1.664951635942939
F-1.9423784093766019
F-1.0
tp29
a(F-0.94656083526689649
F-1.5591576184748841
F-1.0
tp30
a(F-1.8139870631707251
F-1.6290283940426804
F-1.0
tp31
a(F-1.101758646427935
F-1.2101443748510738
F-1.0
tp32
a(F-1.7256585766324777
F-0.91903598776245987
F-1.0
tp33
a(F-1.7492526908543979
F-0.76538339906769803
F-1.0
tp34
a(F-1.1897035773798885
F-1.8008301477986413
F-1.0
tp35
a(F-1.4812089467996612
F-1.4654592054725466
F-1.0
tp36
a(F-2.2117250664698354
F-1.2249569512884526
F-1.0
tp37
a(F-1.6416894539816189
F-1.5537566587576093
F-1.0
tp38
a(F-2.2105948584429735
F-2.3964792921113607
F-1.0
tp39
a(F-1.4707523401793847
F-1.3408140665874966
F-1.0
tp40
a(F-1.7293563954305147
F-1.4852727420376426
F-1.0
tp41
a(lp42
g3
ag22
ag32
ag40
ag6
ag9
ag26
ag36
ag31
ag1
ag16
ag10
ag4
ag14
ag15
ag5
ag34
ag7
ag39
ag17
ag12
ag41
ag38
ag19
ag29
ag11
ag13
ag24
ag2
ag35
ag8
ag20
ag37
ag28
ag30
ag23
ag27
ag18
ag33
ag25
atp43
.