((lp0
(F-2.2261729421137439
F1.3716766603485122
F1.0
tp1
a(F-1.1319129751638293
F0.25712610209418146
F1.0
tp2
a(F-1.5147887918486331
F1.7083263598442382
F1.0
tp3
a(F-0.67357264922460047
F1.0365583994688765
F1.0
tp4
a(F-0.43404327549123733
F1.2235056907739481
F1.0
tp5
a(F1.0015555076243206
F1.039311193998806
F1.0
tp6
a(F-3.147901188368774
F-0.69657969090363414
F1.0
tp7
a(F-1.8072768869238973
F2.66188029228634
F1.0
tp8
a(F-1.7615207162911091
F0.72751287593329228
F1.0
tp9
a(F-1.3704717296071449
F-0.96353557375539456
F1.0
tp10
a(F1.3383484219302548
F0.33719736681992085
F1.0
tp11
a(F1.2371220628703266
F1.358299112352209
F1.0
tp12
a(F1.5692118864522799
F1.2538846644743686
F1.0
tp13
a(F1.8570165987790523
F-0.86135807066598158
F1.0
tp14
a(F2.5360591418404832
F-1.0474489829878317
F1.0
tp15
a(F0.0047029030003402639
F0.029753272635159089
F1.0
tp16
a(F2.0451815257636343
F1.7136749041645165
F1.0
tp17
a(F1.3140442956315095
F0.55615921873312546
F1.0
tp18
a(F1.7533705835460023
F2.5250955446993695
F1.0
tp19
a(F1.352576032458116
F1.0832544815980703
F1.0
tp20
a(lp21
(F-0.82690284616868426
F-1.0897057752520163
F-1.0
tp22
a(F-0.59266136605025455
F-0.8479657712723323
F-1.0
tp23
a(F-1.7679280285514209
F-0.74059311328521915
F-1.0
tp24
a(F-2.4499936767414132
F-1.4183890978427667
F-1.0
tp25
a(F-1.0847937831938512
F-2.3405069133579057
F-1.0
tp26
a(F-0.90624480606131863
F-2.0865753106933633
F-1.0
tp27
a(F-1.7924391776808524
F-2.1080602780498907
F-1.0
tp28
a(F-1.4610324608594913
F-1.854036944411019
F-1.0
tp29
a(F-1.2749232641811548
F-0.52087871707465438
F-1.0
tp30
a(F-1.4421315215339263
F-1.1965915242652267
F-1.0
tp31
a(F-1.4065356054462972
F-1.8460370229560157
F-1.0
tp32
a(F-0.89199436865055604
F-1.8171417184312515
F-1.0
tp33
a(F-1.6231231407847682
F-1.2097540201309331
F-1.0
tp34
a(F-0.50081792109717793
F-1.5273393039863676
F-1.0
tp35
a(F-1.5261365242650822
F-0.81706775884789018
F-1.0
tp36
a(F-0.88041923066766248
F-1.5936560775664748
F-1.0
tp37
a(F-2.4411780190491279
F-1.7418647487655219
F-1.0
tp38
a(F-1.4869898149443077
F-1.8014501593132426
F-1.0
tp39
a(F-1.1432725017887031
F-1.9405417829951386
F-1.0
tp40
a(F-1.3917799355236009
F-2.2662415200446548
F-1.0
tp41
a(lp42
g37
ag32
ag23
ag38
ag14
ag13
ag17
ag1
ag16
ag36
ag33
ag29
ag25
ag35
ag8
ag41
ag31
ag11
ag3
ag5
ag39
ag40
ag19
ag26
ag27
ag9
ag28
ag24
ag7
ag10
ag30
ag20
ag12
ag22
ag2
ag34
ag18
ag6
ag4
ag15
atp43
.